target datalayout = "e-m:e-p270:32:32-p271:32:32-p272:64:64-i64:64-i128:128-f80:128-n8:16:32:64-S128"
target triple = "x86_64-pc-linux-gnu"

%struct.lzma_next_coder_s = type { ptr, i64, i64, ptr, ptr, ptr, ptr, ptr, ptr, ptr }
%struct.lzma_stream = type { ptr, i64, i64, ptr, i64, i64, ptr, ptr, ptr, ptr, ptr, ptr, i64, i64, i64, i64, i32, i32 }
%struct.lzma_internal_s = type { %struct.lzma_next_coder_s, i32, i64, [5 x i8], i8 }

; Function Attrs: nounwind uwtable
define dso_local i32 @lzma_stream_decoder(ptr noundef %0, i64 noundef %1, i32 noundef %2) #0 {
  %4 = alloca i32, align 4
  %5 = alloca ptr, align 8
  %6 = alloca i64, align 8
  %7 = alloca i32, align 4
  %8 = alloca i32, align 4
  %9 = alloca i32, align 4
  %10 = alloca i32, align 4
  store ptr %0, ptr %5, align 8, !tbaa !9
  store i64 %1, ptr %6, align 8, !tbaa !10
  store i32 %2, ptr %7, align 4, !tbaa !12
  br label %11

11:                                               ; preds = %3
  br label %12

12:                                               ; preds = %11
  call void @llvm.lifetime.start.p0(i64 4, ptr %8) #8
  %13 = load ptr, ptr %5, align 8, !tbaa !9
  %14 = call i32 @lzma_strm_init(ptr noundef %13)
  store i32 %14, ptr %8, align 4, !tbaa !12
  %15 = load i32, ptr %8, align 4, !tbaa !12
  %16 = icmp ne i32 %15, 0
  br i1 %16, label %17, label %19

17:                                               ; preds = %12
  %18 = load i32, ptr %8, align 4, !tbaa !12
  store i32 %18, ptr %4, align 4
  store i32 1, ptr %9, align 4
  br label %20

19:                                               ; preds = %12
  store i32 0, ptr %9, align 4
  br label %20

20:                                               ; preds = %19, %17
  call void @llvm.lifetime.end.p0(i64 4, ptr %8) #8
  %21 = load i32, ptr %9, align 4
  switch i32 %21, label %56 [
    i32 0, label %22
    i32 1, label %54
  ]

22:                                               ; preds = %20
  br label %23

23:                                               ; preds = %22
  call void @llvm.lifetime.start.p0(i64 4, ptr %10) #8
  %24 = load ptr, ptr %5, align 8, !tbaa !9
  %25 = getelementptr inbounds nuw %struct.lzma_stream, ptr %24, i32 0, i32 7
  %26 = load ptr, ptr %25, align 8, !tbaa !56
  %27 = getelementptr inbounds nuw %struct.lzma_internal_s, ptr %26, i32 0, i32 0
  %28 = load ptr, ptr %5, align 8, !tbaa !9
  %29 = getelementptr inbounds nuw %struct.lzma_stream, ptr %28, i32 0, i32 6
  %30 = load ptr, ptr %29, align 8, !tbaa !59
  %31 = load i64, ptr %6, align 8, !tbaa !10
  %32 = load i32, ptr %7, align 4, !tbaa !12
  %33 = call i32 @lzma_stream_decoder_init(ptr noundef %27, ptr noundef %30, i64 noundef %31, i32 noundef %32)
  store i32 %33, ptr %10, align 4, !tbaa !12
  %34 = load i32, ptr %10, align 4, !tbaa !12
  %35 = icmp ne i32 %34, 0
  br i1 %35, label %36, label %39

36:                                               ; preds = %23
  %37 = load ptr, ptr %5, align 8, !tbaa !9
  call void @lzma_end(ptr noundef %37) #8
  %38 = load i32, ptr %10, align 4, !tbaa !12
  store i32 %38, ptr %4, align 4
  store i32 1, ptr %9, align 4
  br label %40

39:                                               ; preds = %23
  store i32 0, ptr %9, align 4
  br label %40

40:                                               ; preds = %39, %36
  call void @llvm.lifetime.end.p0(i64 4, ptr %10) #8
  %41 = load i32, ptr %9, align 4
  switch i32 %41, label %56 [
    i32 0, label %42
    i32 1, label %54
  ]

42:                                               ; preds = %40
  br label %43

43:                                               ; preds = %42
  %44 = load ptr, ptr %5, align 8, !tbaa !9
  %45 = getelementptr inbounds nuw %struct.lzma_stream, ptr %44, i32 0, i32 7
  %46 = load ptr, ptr %45, align 8, !tbaa !56
  %47 = getelementptr inbounds nuw %struct.lzma_internal_s, ptr %46, i32 0, i32 3
  %48 = getelementptr inbounds [5 x i8], ptr %47, i64 0, i64 0
  store i8 1, ptr %48, align 8, !tbaa !60
  %49 = load ptr, ptr %5, align 8, !tbaa !9
  %50 = getelementptr inbounds nuw %struct.lzma_stream, ptr %49, i32 0, i32 7
  %51 = load ptr, ptr %50, align 8, !tbaa !56
  %52 = getelementptr inbounds nuw %struct.lzma_internal_s, ptr %51, i32 0, i32 3
  %53 = getelementptr inbounds [5 x i8], ptr %52, i64 0, i64 3
  store i8 1, ptr %53, align 1, !tbaa !60
  store i32 0, ptr %4, align 4
  br label %54

54:                                               ; preds = %43, %40, %20
  %55 = load i32, ptr %4, align 4
  ret i32 %55

56:                                               ; preds = %40, %20
  unreachable
}