; Function Attrs: nounwind uwtable
define dso_local i32 @lzma_stream_decoder(ptr noundef %0, i64 noundef %1, i32 noundef %2) local_unnamed_addr #0 {
  %4 = tail call i32 @lzma_strm_init(ptr noundef %0) #10
  %.not.not = icmp eq i32 %4, 0
  br i1 %.not.not, label %5, label %16

5:                                                ; preds = %3
  %6 = getelementptr inbounds nuw i8, ptr %0, i64 56
  %7 = load ptr, ptr %6, align 8, !tbaa !47
  %8 = getelementptr inbounds nuw i8, ptr %0, i64 48
  %9 = load ptr, ptr %8, align 8, !tbaa !51
  %10 = tail call i32 @lzma_stream_decoder_init(ptr noundef %7, ptr noundef %9, i64 noundef %1, i32 noundef %2)
  %.not16.not = icmp eq i32 %10, 0
  br i1 %.not16.not, label %12, label %11

11:                                               ; preds = %5
  tail call void @lzma_end(ptr noundef nonnull %0) #10
  br label %16

12:                                               ; preds = %5
  %13 = load ptr, ptr %6, align 8, !tbaa !47
  %14 = getelementptr inbounds nuw i8, ptr %13, i64 96
  store i8 1, ptr %14, align 8, !tbaa !52
  %15 = getelementptr inbounds nuw i8, ptr %13, i64 99
  store i8 1, ptr %15, align 1, !tbaa !52
  br label %16

16:                                               ; preds = %11, %3, %12
  %.1 = phi i32 [ %4, %3 ], [ %10, %11 ], [ 0, %12 ]
  ret i32 %.1
}